; Function Attrs: mustprogress nofree norecurse nosync nounwind willreturn memory(argmem: read) uwtable
define hidden zeroext i1 @av1_use_qmatrix(ptr nocapture noundef readonly %0, ptr nocapture noundef readonly %1, i32 noundef %2) local_unnamed_addr #1 {
  %4 = getelementptr inbounds nuw i8, ptr %0, i64 18360
  %5 = load i8, ptr %4, align 8
  %6 = trunc i8 %5 to i1
  br i1 %6, label %7, label %12

7:                                                ; preds = %3
  %8 = getelementptr inbounds nuw i8, ptr %1, i64 10692
  %9 = sext i32 %2 to i64
  %10 = getelementptr inbounds [8 x i32], ptr %8, i64 0, i64 %9
  %11 = load i32, ptr %10, align 4
  %.not = icmp eq i32 %11, 0
  br label %12

12:                                               ; preds = %7, %3
  %13 = phi i1 [ false, %3 ], [ %.not, %7 ]
  ret i1 %13
}